target datalayout = "e-m:e-p270:32:32-p271:32:32-p272:64:64-i64:64-i128:128-f80:128-n8:16:32:64-S128"
target triple = "x86_64-pc-linux-gnu"

%"class.arrow::UnionType" = type { %"class.arrow::NestedType", %"class.std::vector.24", %"class.std::vector.29" }
%"class.arrow::NestedType" = type { %"class.arrow::DataType" }
%"class.arrow::DataType" = type { %"class.arrow::detail::Fingerprintable", %"class.std::enable_shared_from_this", i32, %"class.std::vector.19" }
%"class.arrow::detail::Fingerprintable" = type { ptr, %"struct.std::atomic.17", %"struct.std::atomic.17" }
%"struct.std::atomic.17" = type { %"struct.std::__atomic_base.18" }
%"struct.std::__atomic_base.18" = type { ptr }
%"class.std::enable_shared_from_this" = type { %"class.std::weak_ptr" }
%"class.std::weak_ptr" = type { %"class.std::__weak_ptr" }
%"class.std::__weak_ptr" = type { ptr, %"class.std::__weak_count" }
%"class.std::__weak_count" = type { ptr }
%"class.std::vector.19" = type { %"struct.std::_Vector_base.20" }
%"struct.std::_Vector_base.20" = type { %"struct.std::_Vector_base<std::shared_ptr<arrow::Field>, std::allocator<std::shared_ptr<arrow::Field>>>::_Vector_impl" }
%"struct.std::_Vector_base<std::shared_ptr<arrow::Field>, std::allocator<std::shared_ptr<arrow::Field>>>::_Vector_impl" = type { %"struct.std::_Vector_base<std::shared_ptr<arrow::Field>, std::allocator<std::shared_ptr<arrow::Field>>>::_Vector_impl_data" }
%"struct.std::_Vector_base<std::shared_ptr<arrow::Field>, std::allocator<std::shared_ptr<arrow::Field>>>::_Vector_impl_data" = type { ptr, ptr, ptr }
%"class.std::vector.24" = type { %"struct.std::_Vector_base.25" }
%"struct.std::_Vector_base.25" = type { %"struct.std::_Vector_base<signed char, std::allocator<signed char>>::_Vector_impl" }
%"struct.std::_Vector_base<signed char, std::allocator<signed char>>::_Vector_impl" = type { %"struct.std::_Vector_base<signed char, std::allocator<signed char>>::_Vector_impl_data" }
%"struct.std::_Vector_base<signed char, std::allocator<signed char>>::_Vector_impl_data" = type { ptr, ptr, ptr }
%"class.std::vector.29" = type { %"struct.std::_Vector_base.30" }
%"struct.std::_Vector_base.30" = type { %"struct.std::_Vector_base<int, std::allocator<int>>::_Vector_impl" }
%"struct.std::_Vector_base<int, std::allocator<int>>::_Vector_impl" = type { %"struct.std::_Vector_base<int, std::allocator<int>>::_Vector_impl_data" }
%"struct.std::_Vector_base<int, std::allocator<int>>::_Vector_impl_data" = type { ptr, ptr, ptr }
%"struct.arrow::ArraySpan" = type { ptr, i64, i64, i64, [3 x %"struct.arrow::BufferSpan"], %"class.std::vector.34" }
%"struct.arrow::BufferSpan" = type { ptr, i64, ptr }
%"class.std::vector.34" = type { %"struct.std::_Vector_base.35" }
%"struct.std::_Vector_base.35" = type { %"struct.std::_Vector_base<arrow::ArraySpan, std::allocator<arrow::ArraySpan>>::_Vector_impl" }
%"struct.std::_Vector_base<arrow::ArraySpan, std::allocator<arrow::ArraySpan>>::_Vector_impl" = type { %"struct.std::_Vector_base<arrow::ArraySpan, std::allocator<arrow::ArraySpan>>::_Vector_impl_data" }
%"struct.std::_Vector_base<arrow::ArraySpan, std::allocator<arrow::ArraySpan>>::_Vector_impl_data" = type { ptr, ptr, ptr }

; Function Attrs: mustprogress nounwind uwtable
define linkonce_odr noundef i32 @_ZNK5arrow8DataType2idEv(ptr noundef nonnull align 8 dereferenceable(72) %0) #3 comdat align 2 {
  %2 = alloca ptr, align 8
  store ptr %0, ptr %2, align 8, !tbaa !10
  %3 = load ptr, ptr %2, align 8
  %4 = getelementptr inbounds nuw %"class.arrow::DataType", ptr %3, i32 0, i32 2
  %5 = load i32, ptr %4, align 8, !tbaa !109
  ret i32 %5
}

; Function Attrs: mustprogress nounwind uwtable
define internal noundef zeroext i1 @_ZN5arrow8bit_utilL6GetBitEPKhm(ptr noundef %0, i64 noundef %1) #3 {
  %3 = alloca ptr, align 8
  %4 = alloca i64, align 8
  store ptr %0, ptr %3, align 8, !tbaa !14
  store i64 %1, ptr %4, align 8, !tbaa !8
  %5 = load ptr, ptr %3, align 8, !tbaa !14
  %6 = load i64, ptr %4, align 8, !tbaa !8
  %7 = lshr i64 %6, 3
  %8 = getelementptr inbounds nuw i8, ptr %5, i64 %7
  %9 = load i8, ptr %8, align 1, !tbaa !39
  %10 = zext i8 %9 to i32
  %11 = load i64, ptr %4, align 8, !tbaa !8
  %12 = and i64 %11, 7
  %13 = trunc i64 %12 to i32
  %14 = ashr i32 %10, %13
  %15 = and i32 %14, 1
  %16 = icmp ne i32 %15, 0
  ret i1 %16
}

; Function Attrs: inlinehint mustprogress uwtable
define linkonce_odr noundef zeroext i1 @_ZNK5arrow9ArraySpan7IsValidEl(ptr noundef nonnull align 8 dereferenceable(128) %0, i64 noundef %1) #4 comdat align 2 {
  %3 = alloca i1, align 1
  %4 = alloca ptr, align 8
  %5 = alloca i64, align 8
  %6 = alloca i32, align 4
  %7 = alloca i32, align 4
  store ptr %0, ptr %4, align 8, !tbaa !81
  store i64 %1, ptr %5, align 8, !tbaa !8
  %8 = load ptr, ptr %4, align 8
  %9 = getelementptr inbounds nuw %"struct.arrow::ArraySpan", ptr %8, i32 0, i32 4
  %10 = getelementptr inbounds [3 x %"struct.arrow::BufferSpan"], ptr %9, i64 0, i64 0
  %11 = getelementptr inbounds nuw %"struct.arrow::BufferSpan", ptr %10, i32 0, i32 0
  %12 = load ptr, ptr %11, align 8, !tbaa !92
  %13 = icmp ne ptr %12, null
  br i1 %13, label %14, label %24

14:                                               ; preds = %2
  %15 = getelementptr inbounds nuw %"struct.arrow::ArraySpan", ptr %8, i32 0, i32 4
  %16 = getelementptr inbounds [3 x %"struct.arrow::BufferSpan"], ptr %15, i64 0, i64 0
  %17 = getelementptr inbounds nuw %"struct.arrow::BufferSpan", ptr %16, i32 0, i32 0
  %18 = load ptr, ptr %17, align 8, !tbaa !92
  %19 = load i64, ptr %5, align 8, !tbaa !8
  %20 = getelementptr inbounds nuw %"struct.arrow::ArraySpan", ptr %8, i32 0, i32 3
  %21 = load i64, ptr %20, align 8, !tbaa !91
  %22 = add nsw i64 %19, %21
  %23 = call noundef zeroext i1 @_ZN5arrow8bit_utilL6GetBitEPKhm(ptr noundef %18, i64 noundef %22)
  store i1 %23, ptr %3, align 1
  br label %55

24:                                               ; preds = %2
  call void @llvm.lifetime.start.p0(i64 4, ptr %6) #20
  %25 = getelementptr inbounds nuw %"struct.arrow::ArraySpan", ptr %8, i32 0, i32 0
  %26 = load ptr, ptr %25, align 8, !tbaa !83
  %27 = call noundef i32 @_ZNK5arrow8DataType2idEv(ptr noundef nonnull align 8 dereferenceable(72) %26)
  store i32 %27, ptr %6, align 4, !tbaa !94
  %28 = load i32, ptr %6, align 4, !tbaa !94
  %29 = icmp eq i32 %28, 27
  br i1 %29, label %30, label %34

30:                                               ; preds = %24
  %31 = load i64, ptr %5, align 8, !tbaa !8
  %32 = call noundef zeroext i1 @_ZNK5arrow9ArraySpan17IsNullSparseUnionEl(ptr noundef nonnull align 8 dereferenceable(128) %8, i64 noundef %31)
  %33 = xor i1 %32, true
  store i1 %33, ptr %3, align 1
  store i32 1, ptr %7, align 4
  br label %54

34:                                               ; preds = %24
  %35 = load i32, ptr %6, align 4, !tbaa !94
  %36 = icmp eq i32 %35, 28
  br i1 %36, label %37, label %41

37:                                               ; preds = %34
  %38 = load i64, ptr %5, align 8, !tbaa !8
  %39 = call noundef zeroext i1 @_ZNK5arrow9ArraySpan16IsNullDenseUnionEl(ptr noundef nonnull align 8 dereferenceable(128) %8, i64 noundef %38)
  %40 = xor i1 %39, true
  store i1 %40, ptr %3, align 1
  store i32 1, ptr %7, align 4
  br label %54

41:                                               ; preds = %34
  %42 = load i32, ptr %6, align 4, !tbaa !94
  %43 = icmp eq i32 %42, 38
  br i1 %43, label %44, label %48

44:                                               ; preds = %41
  %45 = load i64, ptr %5, align 8, !tbaa !8
  %46 = call noundef zeroext i1 @_ZNK5arrow9ArraySpan19IsNullRunEndEncodedEl(ptr noundef nonnull align 8 dereferenceable(128) %8, i64 noundef %45)
  %47 = xor i1 %46, true
  store i1 %47, ptr %3, align 1
  store i32 1, ptr %7, align 4
  br label %54

48:                                               ; preds = %41
  %49 = getelementptr inbounds nuw %"struct.arrow::ArraySpan", ptr %8, i32 0, i32 2
  %50 = load i64, ptr %49, align 8, !tbaa !90
  %51 = getelementptr inbounds nuw %"struct.arrow::ArraySpan", ptr %8, i32 0, i32 1
  %52 = load i64, ptr %51, align 8, !tbaa !89
  %53 = icmp ne i64 %50, %52
  store i1 %53, ptr %3, align 1
  store i32 1, ptr %7, align 4
  br label %54

54:                                               ; preds = %48, %44, %37, %30
  call void @llvm.lifetime.end.p0(i64 4, ptr %6) #20
  br label %55

55:                                               ; preds = %54, %14
  %56 = load i1, ptr %3, align 1
  ret i1 %56
}

; Function Attrs: inlinehint mustprogress uwtable
define linkonce_odr noundef zeroext i1 @_ZNK5arrow9ArraySpan6IsNullEl(ptr noundef nonnull align 8 dereferenceable(128) %0, i64 noundef %1) #4 comdat align 2 {
  %3 = alloca ptr, align 8
  %4 = alloca i64, align 8
  store ptr %0, ptr %3, align 8, !tbaa !81
  store i64 %1, ptr %4, align 8, !tbaa !8
  %5 = load ptr, ptr %3, align 8
  %6 = load i64, ptr %4, align 8, !tbaa !8
  %7 = call noundef zeroext i1 @_ZNK5arrow9ArraySpan7IsValidEl(ptr noundef nonnull align 8 dereferenceable(128) %5, i64 noundef %6)
  %8 = xor i1 %7, true
  ret i1 %8
}

; Function Attrs: mustprogress nounwind uwtable
define linkonce_odr noundef nonnull align 8 dereferenceable(128) ptr @_ZNKSt6vectorIN5arrow9ArraySpanESaIS1_EEixEm(ptr noundef nonnull align 8 dereferenceable(24) %0, i64 noundef %1) #3 comdat align 2 {
  %3 = alloca ptr, align 8
  %4 = alloca i64, align 8
  store ptr %0, ptr %3, align 8, !tbaa !190
  store i64 %1, ptr %4, align 8, !tbaa !8
  %5 = load ptr, ptr %3, align 8
  %6 = getelementptr inbounds nuw %"struct.std::_Vector_base.35", ptr %5, i32 0, i32 0
  %7 = getelementptr inbounds nuw %"struct.std::_Vector_base<arrow::ArraySpan, std::allocator<arrow::ArraySpan>>::_Vector_impl_data", ptr %6, i32 0, i32 0
  %8 = load ptr, ptr %7, align 8, !tbaa !192
  %9 = load i64, ptr %4, align 8, !tbaa !8
  %10 = getelementptr inbounds nuw %"struct.arrow::ArraySpan", ptr %8, i64 %9
  ret ptr %10
}

; Function Attrs: mustprogress nounwind uwtable
define linkonce_odr noundef nonnull align 4 dereferenceable(4) ptr @_ZNKSt6vectorIiSaIiEEixEm(ptr noundef nonnull align 8 dereferenceable(24) %0, i64 noundef %1) #3 comdat align 2 {
  %3 = alloca ptr, align 8
  %4 = alloca i64, align 8
  store ptr %0, ptr %3, align 8, !tbaa !68
  store i64 %1, ptr %4, align 8, !tbaa !8
  %5 = load ptr, ptr %3, align 8
  %6 = getelementptr inbounds nuw %"struct.std::_Vector_base.30", ptr %5, i32 0, i32 0
  %7 = getelementptr inbounds nuw %"struct.std::_Vector_base<int, std::allocator<int>>::_Vector_impl_data", ptr %6, i32 0, i32 0
  %8 = load ptr, ptr %7, align 8, !tbaa !70
  %9 = load i64, ptr %4, align 8, !tbaa !8
  %10 = getelementptr inbounds nuw i32, ptr %8, i64 %9
  ret ptr %10
}

; Function Attrs: mustprogress nounwind uwtable
define linkonce_odr noundef nonnull align 8 dereferenceable(24) ptr @_ZNK5arrow9UnionType9child_idsEv(ptr noundef nonnull align 8 dereferenceable(120) %0) #3 comdat align 2 {
  %2 = alloca ptr, align 8
  store ptr %0, ptr %2, align 8, !tbaa !66
  %3 = load ptr, ptr %2, align 8
  %4 = getelementptr inbounds nuw %"class.arrow::UnionType", ptr %3, i32 0, i32 2
  ret ptr %4
}

; Function Attrs: inlinehint mustprogress nounwind uwtable
define linkonce_odr noundef ptr @_ZN5arrow8internal12checked_castIPKNS_15SparseUnionTypeERKPKNS_8DataTypeEEET_OT0_(ptr noundef nonnull align 8 dereferenceable(8) %0) #2 comdat {
  %2 = alloca ptr, align 8
  store ptr %0, ptr %2, align 8, !tbaa !42
  %3 = load ptr, ptr %2, align 8, !tbaa !42
  %4 = load ptr, ptr %3, align 8, !tbaa !10
  ret ptr %4
}

; Function Attrs: mustprogress uwtable
define noundef zeroext i1 @_ZNK5arrow9ArraySpan17IsNullSparseUnionEl(ptr noundef nonnull align 8 dereferenceable(128) %0, i64 noundef %1) #0 align 2 {
  %3 = alloca ptr, align 8
  %4 = alloca i64, align 8
  %5 = alloca ptr, align 8
  %6 = alloca ptr, align 8
  %7 = alloca i32, align 4
  store ptr %0, ptr %3, align 8, !tbaa !81
  store i64 %1, ptr %4, align 8, !tbaa !8
  %8 = load ptr, ptr %3, align 8
  call void @llvm.lifetime.start.p0(i64 8, ptr %5) #20
  %9 = getelementptr inbounds nuw %"struct.arrow::ArraySpan", ptr %8, i32 0, i32 0
  %10 = call noundef ptr @_ZN5arrow8internal12checked_castIPKNS_15SparseUnionTypeERKPKNS_8DataTypeEEET_OT0_(ptr noundef nonnull align 8 dereferenceable(8) %9)
  store ptr %10, ptr %5, align 8, !tbaa !12
  call void @llvm.lifetime.start.p0(i64 8, ptr %6) #20
  %11 = getelementptr inbounds nuw %"struct.arrow::ArraySpan", ptr %8, i32 0, i32 4
  %12 = getelementptr inbounds [3 x %"struct.arrow::BufferSpan"], ptr %11, i64 0, i64 1
  %13 = getelementptr inbounds nuw %"struct.arrow::BufferSpan", ptr %12, i32 0, i32 0
  %14 = load ptr, ptr %13, align 8, !tbaa !92
  store ptr %14, ptr %6, align 8, !tbaa !14
  call void @llvm.lifetime.start.p0(i64 4, ptr %7) #20
  %15 = load ptr, ptr %5, align 8, !tbaa !12
  %16 = call noundef nonnull align 8 dereferenceable(24) ptr @_ZNK5arrow9UnionType9child_idsEv(ptr noundef nonnull align 8 dereferenceable(120) %15)
  %17 = load ptr, ptr %6, align 8, !tbaa !14
  %18 = getelementptr inbounds nuw %"struct.arrow::ArraySpan", ptr %8, i32 0, i32 3
  %19 = load i64, ptr %18, align 8, !tbaa !91
  %20 = load i64, ptr %4, align 8, !tbaa !8
  %21 = add nsw i64 %19, %20
  %22 = getelementptr inbounds i8, ptr %17, i64 %21
  %23 = load i8, ptr %22, align 1, !tbaa !39
  %24 = sext i8 %23 to i64
  %25 = call noundef nonnull align 4 dereferenceable(4) ptr @_ZNKSt6vectorIiSaIiEEixEm(ptr noundef nonnull align 8 dereferenceable(24) %16, i64 noundef %24) #20
  %26 = load i32, ptr %25, align 4, !tbaa !40
  store i32 %26, ptr %7, align 4, !tbaa !40
  %27 = getelementptr inbounds nuw %"struct.arrow::ArraySpan", ptr %8, i32 0, i32 5
  %28 = load i32, ptr %7, align 4, !tbaa !40
  %29 = sext i32 %28 to i64
  %30 = call noundef nonnull align 8 dereferenceable(128) ptr @_ZNKSt6vectorIN5arrow9ArraySpanESaIS1_EEixEm(ptr noundef nonnull align 8 dereferenceable(24) %27, i64 noundef %29) #20
  %31 = load i64, ptr %4, align 8, !tbaa !8
  %32 = call noundef zeroext i1 @_ZNK5arrow9ArraySpan6IsNullEl(ptr noundef nonnull align 8 dereferenceable(128) %30, i64 noundef %31)
  call void @llvm.lifetime.end.p0(i64 4, ptr %7) #20
  call void @llvm.lifetime.end.p0(i64 8, ptr %6) #20
  call void @llvm.lifetime.end.p0(i64 8, ptr %5) #20
  ret i1 %32
}