; Function Attrs: mustprogress uwtable
define noundef zeroext i1 @_ZNK5arrow9ArraySpan17IsNullSparseUnionEl(ptr noundef nonnull readonly align 8 captures(none) dereferenceable(128) %0, i64 noundef %1) local_unnamed_addr #0 align 2 {
  %3 = load ptr, ptr %0, align 8, !tbaa !256
  %4 = getelementptr inbounds nuw i8, ptr %0, i64 56
  %5 = load ptr, ptr %4, align 8, !tbaa !68
  %6 = getelementptr inbounds nuw i8, ptr %3, i64 96
  %7 = getelementptr inbounds nuw i8, ptr %0, i64 24
  %8 = load i64, ptr %7, align 8, !tbaa !65
  %9 = getelementptr i8, ptr %5, i64 %8
  %10 = getelementptr i8, ptr %9, i64 %1
  %11 = load i8, ptr %10, align 1, !tbaa !49
  %12 = sext i8 %11 to i64
  %13 = load ptr, ptr %6, align 8, !tbaa !50
  %14 = getelementptr inbounds nuw i32, ptr %13, i64 %12
  %15 = load i32, ptr %14, align 4, !tbaa !53
  %16 = getelementptr inbounds nuw i8, ptr %0, i64 104
  %17 = sext i32 %15 to i64
  %18 = load ptr, ptr %16, align 8, !tbaa !64
  %19 = getelementptr inbounds nuw %"struct.arrow::ArraySpan", ptr %18, i64 %17
  %20 = getelementptr inbounds nuw i8, ptr %19, i64 32
  %21 = load ptr, ptr %20, align 8, !tbaa !68
  %.not.i.i = icmp eq ptr %21, null
  br i1 %.not.i.i, label %35, label %22

22:                                               ; preds = %2
  %23 = getelementptr inbounds nuw i8, ptr %19, i64 24
  %24 = load i64, ptr %23, align 8, !tbaa !65
  %25 = add nsw i64 %24, %1
  %26 = lshr i64 %25, 3
  %27 = getelementptr inbounds nuw i8, ptr %21, i64 %26
  %28 = load i8, ptr %27, align 1, !tbaa !49
  %29 = zext i8 %28 to i32
  %30 = trunc i64 %25 to i32
  %31 = and i32 %30, 7
  %32 = shl nuw nsw i32 1, %31
  %33 = and i32 %32, %29
  %34 = icmp ne i32 %33, 0
  br label %_ZNK5arrow9ArraySpan6IsNullEl.exit

35:                                               ; preds = %2
  %36 = load ptr, ptr %19, align 8, !tbaa !70
  %37 = getelementptr inbounds nuw i8, ptr %36, i64 40
  %38 = load i32, ptr %37, align 8, !tbaa !71
  switch i32 %38, label %48 [
    i32 27, label %39
    i32 28, label %42
    i32 38, label %45
  ]

39:                                               ; preds = %35
  %40 = tail call noundef zeroext i1 @_ZNK5arrow9ArraySpan17IsNullSparseUnionEl(ptr noundef nonnull align 8 dereferenceable(128) %19, i64 noundef %1)
  %41 = xor i1 %40, true
  br label %_ZNK5arrow9ArraySpan6IsNullEl.exit

42:                                               ; preds = %35
  %43 = tail call noundef zeroext i1 @_ZNK5arrow9ArraySpan16IsNullDenseUnionEl(ptr noundef nonnull align 8 dereferenceable(128) %19, i64 noundef %1)
  %44 = xor i1 %43, true
  br label %_ZNK5arrow9ArraySpan6IsNullEl.exit

45:                                               ; preds = %35
  %46 = tail call noundef zeroext i1 @_ZNK5arrow9ArraySpan19IsNullRunEndEncodedEl(ptr noundef nonnull align 8 dereferenceable(128) %19, i64 noundef %1)
  %47 = xor i1 %46, true
  br label %_ZNK5arrow9ArraySpan6IsNullEl.exit

48:                                               ; preds = %35
  %49 = getelementptr inbounds nuw i8, ptr %19, i64 16
  %50 = load i64, ptr %49, align 8, !tbaa !57
  %51 = getelementptr inbounds nuw i8, ptr %19, i64 8
  %52 = load i64, ptr %51, align 8, !tbaa !90
  %53 = icmp ne i64 %50, %52
  br label %_ZNK5arrow9ArraySpan6IsNullEl.exit

_ZNK5arrow9ArraySpan6IsNullEl.exit:               ; preds = %22, %39, %42, %45, %48
  %.0.i.i = phi i1 [ %34, %22 ], [ %41, %39 ], [ %44, %42 ], [ %47, %45 ], [ %53, %48 ]
  %54 = xor i1 %.0.i.i, true
  ret i1 %54
}